; Function Attrs: mustprogress uwtable
define void @_ZN14WarningHandler20setFileAndLineNumberERKNSt10filesystem7__cxx114pathEi(ptr noundef nonnull align 8 dereferenceable(64) %0, ptr noundef nonnull align 8 dereferenceable(40) %1, i32 noundef %2) local_unnamed_addr #0 align 2 {
  %4 = getelementptr inbounds nuw i8, ptr %1, i64 8
  %5 = load i64, ptr %4, align 8, !tbaa !4
  %6 = icmp eq i64 %5, 0
  br i1 %6, label %10, label %7

7:                                                ; preds = %3
  %8 = getelementptr inbounds nuw i8, ptr %0, i64 24
  %9 = tail call noundef nonnull align 8 dereferenceable(40) ptr @_ZNSt10filesystem7__cxx114pathaSERKS1_(ptr noundef nonnull align 8 dereferenceable(40) %8, ptr noundef nonnull align 8 dereferenceable(40) %1)
  br label %10

10:                                               ; preds = %7, %3
  %11 = getelementptr inbounds nuw i8, ptr %0, i64 20
  store i32 %2, ptr %11, align 4, !tbaa !12
  ret void
}